; Function Attrs: mustprogress nounwind uwtable
define hidden noundef ptr @_ZN12Dependencies35check_has_no_finalizable_subclassesEP13InstanceKlassP17NewKlassDepChange(ptr noundef %0, ptr noundef readonly %1) local_unnamed_addr #0 align 2 {
  %3 = alloca %class.ClassHierarchyIterator, align 8
  %.not = icmp eq ptr %1, null
  br i1 %.not, label %7, label %4

4:                                                ; preds = %2
  %5 = getelementptr inbounds i8, ptr %1, i64 8
  %6 = load ptr, ptr %5, align 8
  br label %7

7:                                                ; preds = %4, %2
  %.0 = phi ptr [ %6, %4 ], [ %0, %2 ]
  call void @llvm.lifetime.start.p0(i64 24, ptr nonnull %3)
  store ptr %.0, ptr %3, align 8
  %8 = getelementptr inbounds i8, ptr %3, i64 8
  store ptr %.0, ptr %8, align 8
  %9 = getelementptr inbounds i8, ptr %3, i64 16
  store i8 1, ptr %9, align 8
  %10 = icmp eq ptr %.0, null
  br i1 %10, label %_ZN12Dependencies25find_finalizable_subclassEP13InstanceKlass.exit, label %.lr.ph.i

.lr.ph.i:                                         ; preds = %7, %15
  %11 = phi ptr [ %.pr.i, %15 ], [ %.0, %7 ]
  %12 = getelementptr inbounds i8, ptr %11, i64 164
  %13 = load i32, ptr %12, align 4
  %14 = and i32 %13, 1073742336
  %or.cond.not.i = icmp eq i32 %14, 1073741824
  br i1 %or.cond.not.i, label %_ZN12Dependencies25find_finalizable_subclassEP13InstanceKlass.exit, label %15

15:                                               ; preds = %.lr.ph.i
  call void @_ZN22ClassHierarchyIterator4nextEv(ptr noundef nonnull align 8 dereferenceable(17) %3) #18
  %.pr.i = load ptr, ptr %8, align 8
  %16 = icmp eq ptr %.pr.i, null
  br i1 %16, label %_ZN12Dependencies25find_finalizable_subclassEP13InstanceKlass.exit, label %.lr.ph.i, !llvm.loop !55

_ZN12Dependencies25find_finalizable_subclassEP13InstanceKlass.exit: ; preds = %.lr.ph.i, %15, %7
  %.lcssa.i = phi ptr [ null, %7 ], [ null, %15 ], [ %11, %.lr.ph.i ]
  call void @llvm.lifetime.end.p0(i64 24, ptr nonnull %3)
  ret ptr %.lcssa.i
}